; Function Attrs: mustprogress nounwind uwtable
define hidden noundef zeroext i1 @_ZN13G1CMMarkStack13par_pop_chunkEP16G1TaskQueueEntry(ptr noundef nonnull align 8 dereferenceable(688) %0, ptr noundef %1) local_unnamed_addr #0 align 2 {
  %3 = load ptr, ptr @MarkStackChunkList_lock, align 8
  %.not.i.i.i = icmp eq ptr %3, null
  br i1 %.not.i.i.i, label %_ZN11MutexLockerC2EP5MutexNS0_18SafepointCheckFlagE.exit.i, label %4

4:                                                ; preds = %2
  tail call void @_ZN5Mutex28lock_without_safepoint_checkEv(ptr noundef nonnull align 8 dereferenceable(104) %3) #22
  br label %_ZN11MutexLockerC2EP5MutexNS0_18SafepointCheckFlagE.exit.i

_ZN11MutexLockerC2EP5MutexNS0_18SafepointCheckFlagE.exit.i: ; preds = %4, %2
  %5 = getelementptr inbounds i8, ptr %0, i64 560
  %6 = load volatile ptr, ptr %5, align 8
  %.not.i.i = icmp eq ptr %6, null
  br i1 %.not.i.i, label %_ZN13G1CMMarkStack22remove_chunk_from_listEPVPNS_19TaskQueueEntryChunkE.exit.thread.i, label %7

7:                                                ; preds = %_ZN11MutexLockerC2EP5MutexNS0_18SafepointCheckFlagE.exit.i
  %8 = load volatile ptr, ptr %5, align 8
  %9 = load ptr, ptr %8, align 8
  store volatile ptr %9, ptr %5, align 8
  %10 = getelementptr inbounds i8, ptr %0, i64 568
  %11 = load volatile i64, ptr %10, align 8
  %12 = add i64 %11, -1
  store volatile i64 %12, ptr %10, align 8
  br label %_ZN13G1CMMarkStack22remove_chunk_from_listEPVPNS_19TaskQueueEntryChunkE.exit.thread.i

_ZN13G1CMMarkStack22remove_chunk_from_listEPVPNS_19TaskQueueEntryChunkE.exit.thread.i: ; preds = %7, %_ZN11MutexLockerC2EP5MutexNS0_18SafepointCheckFlagE.exit.i
  br i1 %.not.i.i.i, label %_ZN13G1CMMarkStack28remove_chunk_from_chunk_listEv.exit, label %13

13:                                               ; preds = %_ZN13G1CMMarkStack22remove_chunk_from_listEPVPNS_19TaskQueueEntryChunkE.exit.thread.i
  tail call void @_ZN5Mutex6unlockEv(ptr noundef nonnull align 8 dereferenceable(104) %3) #22
  br label %_ZN13G1CMMarkStack28remove_chunk_from_chunk_listEv.exit

_ZN13G1CMMarkStack28remove_chunk_from_chunk_listEv.exit: ; preds = %_ZN13G1CMMarkStack22remove_chunk_from_listEPVPNS_19TaskQueueEntryChunkE.exit.thread.i, %13
  %14 = icmp ne ptr %6, null
  br i1 %14, label %15, label %_ZN13G1CMMarkStack22add_chunk_to_free_listEPNS_19TaskQueueEntryChunkE.exit

15:                                               ; preds = %_ZN13G1CMMarkStack28remove_chunk_from_chunk_listEv.exit
  %16 = getelementptr inbounds i8, ptr %6, i64 8
  tail call void @_ZN4Copy22conjoint_memory_atomicEPKvPvm(ptr noundef nonnull %16, ptr noundef %1, i64 noundef 8184) #22
  %17 = load ptr, ptr @MarkStackFreeList_lock, align 8
  %.not.i.i.i7 = icmp eq ptr %17, null
  br i1 %.not.i.i.i7, label %_ZN11MutexLockerC2EP5MutexNS0_18SafepointCheckFlagE.exit.thread.i, label %20

_ZN11MutexLockerC2EP5MutexNS0_18SafepointCheckFlagE.exit.thread.i: ; preds = %15
  %18 = getelementptr inbounds i8, ptr %0, i64 432
  %19 = load volatile ptr, ptr %18, align 8
  store ptr %19, ptr %6, align 8
  store volatile ptr %6, ptr %18, align 8
  br label %_ZN13G1CMMarkStack22add_chunk_to_free_listEPNS_19TaskQueueEntryChunkE.exit

20:                                               ; preds = %15
  tail call void @_ZN5Mutex28lock_without_safepoint_checkEv(ptr noundef nonnull align 8 dereferenceable(104) %17) #22
  %21 = getelementptr inbounds i8, ptr %0, i64 432
  %22 = load volatile ptr, ptr %21, align 8
  store ptr %22, ptr %6, align 8
  store volatile ptr %6, ptr %21, align 8
  tail call void @_ZN5Mutex6unlockEv(ptr noundef nonnull align 8 dereferenceable(104) %17) #22
  br label %_ZN13G1CMMarkStack22add_chunk_to_free_listEPNS_19TaskQueueEntryChunkE.exit

_ZN13G1CMMarkStack22add_chunk_to_free_listEPNS_19TaskQueueEntryChunkE.exit: ; preds = %20, %_ZN11MutexLockerC2EP5MutexNS0_18SafepointCheckFlagE.exit.thread.i, %_ZN13G1CMMarkStack28remove_chunk_from_chunk_listEv.exit
  ret i1 %14
}